target datalayout = "e-m:e-p270:32:32-p271:32:32-p272:64:64-i64:64-i128:128-f80:128-n8:16:32:64-S128"
target triple = "x86_64-pc-linux-gnu"

%"class.clang::SemaBase" = type { ptr }

@_ZN4llvm24DisableABIBreakingChecksE = external global i32, align 4
@_ZN4llvm30VerifyDisableABIBreakingChecksE = weak hidden global ptr @_ZN4llvm24DisableABIBreakingChecksE, align 8

@_ZN5clang9SemaNVPTXC1ERNS_4SemaE = unnamed_addr alias void (ptr, ptr), ptr @_ZN5clang9SemaNVPTXC2ERNS_4SemaE

; Function Attrs: mustprogress nounwind uwtable
define dso_local void @_ZN5clang9SemaNVPTXC2ERNS_4SemaE(ptr noundef nonnull align 8 dereferenceable(8) %0, ptr noundef nonnull align 8 dereferenceable(17560) %1) unnamed_addr #0 align 2 {
  %3 = alloca ptr, align 8
  %4 = alloca ptr, align 8
  store ptr %0, ptr %3, align 8
  store ptr %1, ptr %4, align 8
  %5 = load ptr, ptr %3, align 8
  %6 = load ptr, ptr %4, align 8
  call void @_ZN5clang8SemaBaseC2ERNS_4SemaE(ptr noundef nonnull align 8 dereferenceable(8) %5, ptr noundef nonnull align 8 dereferenceable(17560) %6)
  ret void
}

declare void @_ZN5clang8SemaBaseC2ERNS_4SemaE(ptr noundef nonnull align 8 dereferenceable(8), ptr noundef nonnull align 8 dereferenceable(17560)) unnamed_addr #1

; Function Attrs: mustprogress nounwind uwtable
define dso_local noundef zeroext i1 @_ZN5clang9SemaNVPTX29CheckNVPTXBuiltinFunctionCallERKNS_10TargetInfoEjPNS_8CallExprE(ptr noundef nonnull align 8 dereferenceable(8) %0, ptr noundef nonnull align 1 %1, i32 noundef %2, ptr noundef %3) #0 align 2 {
  %5 = alloca i1, align 1
  %6 = alloca ptr, align 8
  %7 = alloca ptr, align 8
  %8 = alloca i32, align 4
  %9 = alloca ptr, align 8
  store ptr %0, ptr %6, align 8
  store ptr %1, ptr %7, align 8
  store i32 %2, ptr %8, align 4
  store ptr %3, ptr %9, align 8
  %10 = load ptr, ptr %6, align 8
  %11 = load i32, ptr %8, align 4
  switch i32 %11, label %17 [
    i32 2160, label %12
    i32 2161, label %12
    i32 2162, label %12
    i32 2163, label %12
  ]

12:                                               ; preds = %4, %4, %4, %4
  %13 = getelementptr inbounds nuw %"class.clang::SemaBase", ptr %10, i32 0, i32 0
  %14 = load ptr, ptr %13, align 8
  %15 = load ptr, ptr %9, align 8
  %16 = call noundef zeroext i1 @_ZN5clang4Sema19checkArgCountAtMostEPNS_8CallExprEj(ptr noundef nonnull align 8 dereferenceable(17560) %14, ptr noundef %15, i32 noundef 3)
  store i1 %16, ptr %5, align 1
  br label %18

17:                                               ; preds = %4
  store i1 false, ptr %5, align 1
  br label %18

18:                                               ; preds = %17, %12
  %19 = load i1, ptr %5, align 1
  ret i1 %19
}

declare noundef zeroext i1 @_ZN5clang4Sema19checkArgCountAtMostEPNS_8CallExprEj(ptr noundef nonnull align 8 dereferenceable(17560), ptr noundef, i32 noundef) #1


!llvm.module.flags = !{!0, !1, !2, !3}

!0 = !{i32 1, !"wchar_size", i32 4}
!1 = !{i32 8, !"PIC Level", i32 2}
!2 = !{i32 7, !"uwtable", i32 2}
!3 = !{i32 7, !"frame-pointer", i32 2}
