; ModuleID = 'bench/llvm/original/SemaNVPTX.cpp.ll'
source_filename = "bench/llvm/original/SemaNVPTX.cpp.ll"
target datalayout = "e-m:e-p270:32:32-p271:32:32-p272:64:64-i64:64-i128:128-f80:128-n8:16:32:64-S128"
target triple = "x86_64-pc-linux-gnu"

@_ZN4llvm24DisableABIBreakingChecksE = external global i32, align 4
@_ZN4llvm30VerifyDisableABIBreakingChecksE = weak hidden local_unnamed_addr global ptr @_ZN4llvm24DisableABIBreakingChecksE, align 8

@_ZN5clang9SemaNVPTXC1ERNS_4SemaE = unnamed_addr alias void (ptr, ptr), ptr @_ZN5clang9SemaNVPTXC2ERNS_4SemaE

; Function Attrs: mustprogress nounwind uwtable
define dso_local void @_ZN5clang9SemaNVPTXC2ERNS_4SemaE(ptr noundef nonnull align 8 dereferenceable(8) %0, ptr noundef nonnull align 8 dereferenceable(17560) %1) unnamed_addr #0 align 2 {
  tail call void @_ZN5clang8SemaBaseC2ERNS_4SemaE(ptr noundef nonnull align 8 dereferenceable(8) %0, ptr noundef nonnull align 8 dereferenceable(17560) %1) #2
  ret void
}

declare void @_ZN5clang8SemaBaseC2ERNS_4SemaE(ptr noundef nonnull align 8 dereferenceable(8), ptr noundef nonnull align 8 dereferenceable(17560)) unnamed_addr #1

; Function Attrs: mustprogress nounwind uwtable
define dso_local noundef zeroext i1 @_ZN5clang9SemaNVPTX29CheckNVPTXBuiltinFunctionCallERKNS_10TargetInfoEjPNS_8CallExprE(ptr nocapture noundef nonnull readonly align 8 dereferenceable(8) %0, ptr nocapture noundef nonnull readnone align 1 %1, i32 noundef %2, ptr noundef %3) local_unnamed_addr #0 align 2 {
  %5 = and i32 %2, -4
  %switch = icmp eq i32 %5, 2160
  br i1 %switch, label %6, label %9

6:                                                ; preds = %4
  %7 = load ptr, ptr %0, align 8
  %8 = tail call noundef zeroext i1 @_ZN5clang4Sema19checkArgCountAtMostEPNS_8CallExprEj(ptr noundef nonnull align 8 dereferenceable(17560) %7, ptr noundef %3, i32 noundef 3) #2
  br label %9

9:                                                ; preds = %4, %6
  %.0 = phi i1 [ %8, %6 ], [ false, %4 ]
  ret i1 %.0
}

declare noundef zeroext i1 @_ZN5clang4Sema19checkArgCountAtMostEPNS_8CallExprEj(ptr noundef nonnull align 8 dereferenceable(17560), ptr noundef, i32 noundef) local_unnamed_addr #1


!llvm.module.flags = !{!0, !1, !2, !3}

!0 = !{i32 1, !"wchar_size", i32 4}
!1 = !{i32 8, !"PIC Level", i32 2}
!2 = !{i32 7, !"uwtable", i32 2}
!3 = !{i32 7, !"frame-pointer", i32 2}
